; Function Attrs: mustprogress nounwind uwtable
define dso_local void @_ZN9VInFilterD2Ev(ptr noundef nonnull align 8 captures(none) dereferenceable(8) %0) unnamed_addr #8 align 2 personality ptr @__gxx_personality_v0 {
  %2 = load ptr, ptr %0, align 8, !tbaa !145
  %.not = icmp eq ptr %2, null
  br i1 %.not, label %15, label %3

3:                                                ; preds = %1
  %4 = getelementptr inbounds nuw i8, ptr %2, i64 52
  %5 = load i32, ptr %4, align 4, !tbaa !140
  %.not.i.i = icmp eq i32 %5, 0
  br i1 %.not.i.i, label %_ZN12VInFilterImp4stopEv.exit.i, label %6

6:                                                ; preds = %3
  invoke void @_ZN12VInFilterImp10stopFilterEv(ptr noundef nonnull align 8 dereferenceable(72) %2)
          to label %_ZN12VInFilterImp4stopEv.exit.i unwind label %12

_ZN12VInFilterImp4stopEv.exit.i:                  ; preds = %6, %3
  %7 = getelementptr inbounds nuw i8, ptr %2, i64 16
  %8 = load ptr, ptr %7, align 8, !tbaa !4
  invoke void @_ZNSt8_Rb_treeIKNSt7__cxx1112basic_stringIcSt11char_traitsIcESaIcEEESt4pairIS6_S5_ESt10_Select1stIS8_ESt4lessIS6_ESaIS8_EE8_M_eraseEPSt13_Rb_tree_nodeIS8_E(ptr noundef nonnull align 8 dereferenceable(72) %2, ptr noundef %8)
          to label %_ZN12VInFilterImpD2Ev.exit unwind label %9

9:                                                ; preds = %_ZN12VInFilterImp4stopEv.exit.i
  %10 = landingpad { ptr, i32 }
          catch ptr null
  %11 = extractvalue { ptr, i32 } %10, 0
  tail call void @__clang_call_terminate(ptr %11) #29
  unreachable

12:                                               ; preds = %6
  %13 = landingpad { ptr, i32 }
          catch ptr null
  %14 = extractvalue { ptr, i32 } %13, 0
  tail call void @__clang_call_terminate(ptr %14) #29
  unreachable

_ZN12VInFilterImpD2Ev.exit:                       ; preds = %_ZN12VInFilterImp4stopEv.exit.i
  tail call void @_ZdlPvm(ptr noundef nonnull %2, i64 noundef 72) #31
  store ptr null, ptr %0, align 8, !tbaa !145
  br label %15

15:                                               ; preds = %_ZN12VInFilterImpD2Ev.exit, %1
  ret void
}